target datalayout = "e-m:e-p270:32:32-p271:32:32-p272:64:64-i64:64-i128:128-f80:128-n8:16:32:64-S128"
target triple = "x86_64-pc-linux-gnu"

@__const.server_response_check_cb.magic_HRR_random = private unnamed_addr constant [32 x i8] c"\CF!\ADt\E5\9Aa\11\BE\1D\8C\02\1Ee\B8\91\C2\A2\11\16z\BB\8C^\07\9E\09\E2\C8\A83\9C", align 16

; Function Attrs: nounwind uwtable
define internal void @server_response_check_cb(i32 noundef %0, i32 noundef %1, i32 noundef %2, ptr noundef %3, i64 noundef %4, ptr noundef %5, ptr noundef %6) #0 {
  %8 = alloca i32, align 4
  %9 = alloca i32, align 4
  %10 = alloca i32, align 4
  %11 = alloca ptr, align 8
  %12 = alloca i64, align 8
  %13 = alloca ptr, align 8
  %14 = alloca ptr, align 8
  %15 = alloca ptr, align 8
  %16 = alloca ptr, align 8
  %17 = alloca [32 x i8], align 16
  store i32 %0, ptr %8, align 4, !tbaa !9
  store i32 %1, ptr %9, align 4, !tbaa !9
  store i32 %2, ptr %10, align 4, !tbaa !9
  store ptr %3, ptr %11, align 8, !tbaa !23
  store i64 %4, ptr %12, align 8, !tbaa !24
  store ptr %5, ptr %13, align 8, !tbaa !17
  store ptr %6, ptr %14, align 8, !tbaa !23
  call void @llvm.lifetime.start.p0(i64 8, ptr %15) #5
  %18 = load ptr, ptr %14, align 8, !tbaa !23
  store ptr %18, ptr %15, align 8, !tbaa !23
  call void @llvm.lifetime.start.p0(i64 8, ptr %16) #5
  %19 = load ptr, ptr %11, align 8, !tbaa !23
  %20 = getelementptr inbounds i8, ptr %19, i64 6
  store ptr %20, ptr %16, align 8, !tbaa !4
  call void @llvm.lifetime.start.p0(i64 32, ptr %17) #5
  call void @llvm.memcpy.p0.p0.i64(ptr align 16 %17, ptr align 16 @__const.server_response_check_cb.magic_HRR_random, i64 32, i1 false)
  %21 = load i32, ptr %8, align 4, !tbaa !9
  %22 = icmp eq i32 %21, 0
  br i1 %22, label %23, label %49

23:                                               ; preds = %7
  %24 = load i32, ptr %10, align 4, !tbaa !9
  %25 = icmp eq i32 %24, 22
  br i1 %25, label %26, label %49

26:                                               ; preds = %23
  %27 = load i32, ptr %9, align 4, !tbaa !9
  %28 = icmp eq i32 %27, 772
  br i1 %28, label %29, label %49

29:                                               ; preds = %26
  %30 = load ptr, ptr %11, align 8, !tbaa !23
  %31 = getelementptr inbounds i8, ptr %30, i64 0
  %32 = load i8, ptr %31, align 1, !tbaa !26
  %33 = zext i8 %32 to i32
  %34 = icmp eq i32 %33, 2
  br i1 %34, label %35, label %49

35:                                               ; preds = %29
  %36 = load ptr, ptr %16, align 8, !tbaa !4
  %37 = getelementptr inbounds [32 x i8], ptr %17, i64 0, i64 0
  %38 = call i32 @memcmp(ptr noundef %36, ptr noundef %37, i64 noundef 32) #6
  %39 = icmp eq i32 %38, 0
  br i1 %39, label %40, label %44

40:                                               ; preds = %35
  %41 = load ptr, ptr %15, align 8, !tbaa !23
  %42 = load i32, ptr %41, align 4, !tbaa !9
  %43 = mul i32 %42, 0
  store i32 %43, ptr %41, align 4, !tbaa !9
  br label %48

44:                                               ; preds = %35
  %45 = load ptr, ptr %15, align 8, !tbaa !23
  %46 = load i32, ptr %45, align 4, !tbaa !9
  %47 = mul i32 %46, 2
  store i32 %47, ptr %45, align 4, !tbaa !9
  br label %48

48:                                               ; preds = %44, %40
  br label %49

49:                                               ; preds = %48, %29, %26, %23, %7
  call void @llvm.lifetime.end.p0(i64 32, ptr %17) #5
  call void @llvm.lifetime.end.p0(i64 8, ptr %16) #5
  call void @llvm.lifetime.end.p0(i64 8, ptr %15) #5
  ret void
}