; Function Attrs: mustprogress nofree nounwind willreturn memory(argmem: readwrite) uwtable
define internal void @server_response_check_cb(i32 noundef %0, i32 noundef %1, i32 noundef %2, ptr noundef readonly captures(none) %3, i64 %4, ptr readnone captures(none) %5, ptr noundef captures(none) %6) #4 {
  %8 = getelementptr inbounds nuw i8, ptr %3, i64 6
  %9 = icmp eq i32 %0, 0
  %10 = icmp eq i32 %2, 22
  %or.cond = and i1 %9, %10
  %11 = icmp eq i32 %1, 772
  %or.cond3 = and i1 %11, %or.cond
  br i1 %or.cond3, label %12, label %20

12:                                               ; preds = %7
  %13 = load i8, ptr %3, align 1, !tbaa !21
  %14 = icmp eq i8 %13, 2
  br i1 %14, label %15, label %20

15:                                               ; preds = %12
  %bcmp = tail call i32 @bcmp(ptr noundef nonnull dereferenceable(32) %8, ptr noundef nonnull dereferenceable(32) @__const.server_response_check_cb.magic_HRR_random, i64 32)
  %16 = icmp eq i32 %bcmp, 0
  br i1 %16, label %.sink.split, label %17

17:                                               ; preds = %15
  %18 = load i32, ptr %6, align 4, !tbaa !19
  %19 = shl i32 %18, 1
  br label %.sink.split

.sink.split:                                      ; preds = %15, %17
  %.sink = phi i32 [ %19, %17 ], [ 0, %15 ]
  store i32 %.sink, ptr %6, align 4, !tbaa !19
  br label %20

20:                                               ; preds = %.sink.split, %12, %7
  ret void
}